target datalayout = "e-m:e-p270:32:32-p271:32:32-p272:64:64-i64:64-i128:128-f80:128-n8:16:32:64-S128"
target triple = "x86_64-pc-linux-gnu"

%struct.avifROData = type { ptr, i64 }
%struct.avifROStream = type { ptr, i64, i64, ptr, ptr }
%struct.avifContentLightLevelInformationBox = type { i16, i16 }
%struct.avifProperty = type { [4 x i8], %union.anon }
%union.anon = type { %struct.avifColourInformationBox, [24 x i8] }
%struct.avifColourInformationBox = type { i32, i64, i64, i32, i16, i16, i16, i32 }

@.str.91 = private unnamed_addr constant [10 x i8] c"Box[clli]\00", align 1

; Function Attrs: nounwind uwtable
define internal i32 @avifParseContentLightLevelInformationBox(ptr noundef %0, ptr noundef %1, i64 noundef %2, ptr noundef %3) #0 {
  %5 = alloca i32, align 4
  %6 = alloca ptr, align 8
  %7 = alloca ptr, align 8
  %8 = alloca i64, align 8
  %9 = alloca ptr, align 8
  %10 = alloca %struct.avifROStream, align 8
  %11 = alloca %struct.avifROData, align 8
  %12 = alloca ptr, align 8
  store ptr %0, ptr %6, align 8
  store ptr %1, ptr %7, align 8
  store i64 %2, ptr %8, align 8
  store ptr %3, ptr %9, align 8
  %13 = load ptr, ptr %7, align 8
  %14 = getelementptr inbounds nuw %struct.avifROData, ptr %11, i32 0, i32 0
  store ptr %13, ptr %14, align 8
  %15 = load i64, ptr %8, align 8
  %16 = getelementptr inbounds nuw %struct.avifROData, ptr %11, i32 0, i32 1
  store i64 %15, ptr %16, align 8
  %17 = load ptr, ptr %9, align 8
  call void @avifROStreamStart(ptr noundef %10, ptr noundef %11, ptr noundef %17, ptr noundef @.str.91)
  %18 = load ptr, ptr %6, align 8
  %19 = getelementptr inbounds nuw %struct.avifProperty, ptr %18, i32 0, i32 1
  store ptr %19, ptr %12, align 8
  br label %20

20:                                               ; preds = %4
  %21 = load ptr, ptr %12, align 8
  %22 = getelementptr inbounds nuw %struct.avifContentLightLevelInformationBox, ptr %21, i32 0, i32 0
  %23 = call i32 @avifROStreamReadU16(ptr noundef %10, ptr noundef %22)
  %24 = icmp ne i32 %23, 0
  br i1 %24, label %26, label %25

25:                                               ; preds = %20
  store i32 0, ptr %5, align 4
  br label %36

26:                                               ; preds = %20
  br label %27

27:                                               ; preds = %26
  br label %28

28:                                               ; preds = %27
  %29 = load ptr, ptr %12, align 8
  %30 = getelementptr inbounds nuw %struct.avifContentLightLevelInformationBox, ptr %29, i32 0, i32 1
  %31 = call i32 @avifROStreamReadU16(ptr noundef %10, ptr noundef %30)
  %32 = icmp ne i32 %31, 0
  br i1 %32, label %34, label %33

33:                                               ; preds = %28
  store i32 0, ptr %5, align 4
  br label %36

34:                                               ; preds = %28
  br label %35

35:                                               ; preds = %34
  store i32 1, ptr %5, align 4
  br label %36

36:                                               ; preds = %35, %33, %25
  %37 = load i32, ptr %5, align 4
  ret i32 %37
}