; Function Attrs: nounwind uwtable
define internal fastcc range(i32 0, 2) i32 @avifParseContentLightLevelInformationBox(ptr noundef nonnull %0, ptr noundef %1, i64 noundef %2, ptr noundef %3) unnamed_addr #0 {
  %5 = alloca %struct.avifROStream, align 8
  %6 = alloca %struct.avifROData, align 8
  store ptr %1, ptr %6, align 8
  %7 = getelementptr inbounds nuw i8, ptr %6, i64 8
  store i64 %2, ptr %7, align 8
  call void @avifROStreamStart(ptr noundef nonnull %5, ptr noundef nonnull %6, ptr noundef %3, ptr noundef nonnull @.str.91) #13
  %8 = getelementptr inbounds nuw i8, ptr %0, i64 8
  %9 = call i32 @avifROStreamReadU16(ptr noundef nonnull %5, ptr noundef nonnull %8) #13
  %.not = icmp eq i32 %9, 0
  br i1 %.not, label %13, label %10

10:                                               ; preds = %4
  %11 = getelementptr inbounds nuw i8, ptr %0, i64 10
  %12 = call i32 @avifROStreamReadU16(ptr noundef nonnull %5, ptr noundef nonnull %11) #13
  %.not6 = icmp ne i32 %12, 0
  %. = zext i1 %.not6 to i32
  br label %13

13:                                               ; preds = %10, %4
  %.0 = phi i32 [ 0, %4 ], [ %., %10 ]
  ret i32 %.0
}